; Function Attrs: nounwind sspstrong uwtable
define dso_local void @tcg_gen_ori_i64(ptr noundef %0, ptr noundef %1, i64 noundef %2) local_unnamed_addr #2 {
  switch i64 %2, label %29 [
    i64 -1, label %4
    i64 0, label %17
  ]

4:                                                ; preds = %3
  %5 = tail call ptr @tcg_constant_i64(i64 noundef -1) #6
  %6 = icmp eq ptr %0, %5
  br i1 %6, label %tcg_gen_movi_i64.exit, label %7

7:                                                ; preds = %4
  %8 = tail call align 8 ptr @llvm.threadlocal.address.p0(ptr align 8 @tcg_ctx)
  %9 = load ptr, ptr %8, align 8
  %10 = ptrtoint ptr %0 to i64
  %11 = getelementptr inbounds nuw i8, ptr %9, i64 %10
  %12 = ptrtoint ptr %11 to i64
  %13 = ptrtoint ptr %5 to i64
  %14 = getelementptr inbounds nuw i8, ptr %9, i64 %13
  %15 = ptrtoint ptr %14 to i64
  %16 = tail call ptr @tcg_gen_op2(i32 noundef 63, i32 noundef 1, i64 noundef %12, i64 noundef %15)
  br label %tcg_gen_movi_i64.exit

17:                                               ; preds = %3
  %18 = icmp eq ptr %0, %1
  br i1 %18, label %tcg_gen_movi_i64.exit, label %19

19:                                               ; preds = %17
  %20 = tail call align 8 ptr @llvm.threadlocal.address.p0(ptr align 8 @tcg_ctx)
  %21 = load ptr, ptr %20, align 8
  %22 = ptrtoint ptr %0 to i64
  %23 = getelementptr inbounds nuw i8, ptr %21, i64 %22
  %24 = ptrtoint ptr %23 to i64
  %25 = ptrtoint ptr %1 to i64
  %26 = getelementptr inbounds nuw i8, ptr %21, i64 %25
  %27 = ptrtoint ptr %26 to i64
  %28 = tail call ptr @tcg_gen_op2(i32 noundef 63, i32 noundef 1, i64 noundef %24, i64 noundef %27)
  br label %tcg_gen_movi_i64.exit

29:                                               ; preds = %3
  %30 = tail call ptr @tcg_constant_i64(i64 noundef %2) #6
  %31 = tail call align 8 ptr @llvm.threadlocal.address.p0(ptr align 8 @tcg_ctx)
  %32 = load ptr, ptr %31, align 8
  %33 = ptrtoint ptr %0 to i64
  %34 = getelementptr inbounds nuw i8, ptr %32, i64 %33
  %35 = ptrtoint ptr %34 to i64
  %36 = ptrtoint ptr %1 to i64
  %37 = getelementptr inbounds nuw i8, ptr %32, i64 %36
  %38 = ptrtoint ptr %37 to i64
  %39 = ptrtoint ptr %30 to i64
  %40 = getelementptr inbounds nuw i8, ptr %32, i64 %39
  %41 = ptrtoint ptr %40 to i64
  %42 = tail call ptr @tcg_gen_op3(i32 noundef 88, i32 noundef 1, i64 noundef %35, i64 noundef %38, i64 noundef %41)
  br label %tcg_gen_movi_i64.exit

tcg_gen_movi_i64.exit:                            ; preds = %19, %17, %7, %4, %29
  ret void
}